(dp0
S'graph'
p1
cnumpy.core.multiarray
_reconstruct
p2
(cnumpy
ndarray
p3
(I0
tp4
S'b'
p5
tp6
Rp7
(I1
(I12
I12
tp8
cnumpy
dtype
p9
(S'f8'
p10
I0
I1
tp11
Rp12
(I3
S'<'
p13
NNNI-1
I-1
I0
tp14
bI00
S'\x00\x00\x00\x00\x00\x00Q@\x00\x00\x00\x00\x00\x00J@\x00\x00\x00\x00\x00\x000@\x00\x00\x00\x00\x00\x00A@\x00\x00\x00\x00\x00\x80I@\x00\x00\x00\x00\x00\x00 @\x00\x00\x00\x00\x00\x00:@\x00\x00\x00\x00\x00\x00,@\x00\x00\x00\x00\x00\x006@\x00\x00\x00\x00\x00\x00Q@\x00\x00\x00\x00\x00\x00"@\x00\x00\x00\x00\x00\x00\x10@\x00\x00\x00\x00\x00\x00J@\x00\x00\x00\x00\x00\xc0R@\x00\x00\x00\x00\x00\x003@\x00\x00\x00\x00\x00\x80D@\x00\x00\x00\x00\x00\x00L@\x00\x00\x00\x00\x00\x00\x1c@\x00\x00\x00\x00\x00\x00>@\x00\x00\x00\x00\x00\x00.@\x00\x00\x00\x00\x00\x006@\x00\x00\x00\x00\x00\xc0R@\x00\x00\x00\x00\x00\x00 @\x00\x00\x00\x00\x00\x00"@\x00\x00\x00\x00\x00\x000@\x00\x00\x00\x00\x00\x003@\x00\x00\x00\x00\x00\x00;@\x00\x00\x00\x00\x00\x00,@\x00\x00\x00\x00\x00\x005@\x00\x00\x00\x00\x00\x00\x14@\x00\x00\x00\x00\x00\x00 @\x00\x00\x00\x00\x00\x00\x14@\x00\x00\x00\x00\x00\x00"@\x00\x00\x00\x00\x00\x00;@\x00\x00\x00\x00\x00\x00\x10@\x00\x00\x00\x00\x00\x00\x00@\x00\x00\x00\x00\x00\x00A@\x00\x00\x00\x00\x00\x80D@\x00\x00\x00\x00\x00\x00,@\x00\x00\x00\x00\x00\x00I@\x00\x00\x00\x00\x00\x00C@\x00\x00\x00\x00\x00\x00\x18@\x00\x00\x00\x00\x00\x003@\x00\x00\x00\x00\x00\x00$@\x00\x00\x00\x00\x00\x001@\x00\x00\x00\x00\x00\x00I@\x00\x00\x00\x00\x00\x00\x10@\x00\x00\x00\x00\x00\x00\x18@\x00\x00\x00\x00\x00\x80I@\x00\x00\x00\x00\x00\x00L@\x00\x00\x00\x00\x00\x005@\x00\x00\x00\x00\x00\x00C@\x00\x00\x00\x00\x00@U@\x00\x00\x00\x00\x00\x00$@\x00\x00\x00\x00\x00\x00=@\x00\x00\x00\x00\x00\x005@\x00\x00\x00\x00\x00\x007@\x00\x00\x00\x00\x00@U@\x00\x00\x00\x00\x00\x00 @\x00\x00\x00\x00\x00\x00"@\x00\x00\x00\x00\x00\x00 @\x00\x00\x00\x00\x00\x00\x1c@\x00\x00\x00\x00\x00\x00\x14@\x00\x00\x00\x00\x00\x00\x18@\x00\x00\x00\x00\x00\x00$@\x00\x00\x00\x00\x00\x00*@\x00\x00\x00\x00\x00\x00\x00@\x00\x00\x00\x00\x00\x00\x18@\x00\x00\x00\x00\x00\x00\x10@\x00\x00\x00\x00\x00\x00*@\x00\x00\x00\x00\x00\x00\x00@\x00\x00\x00\x00\x00\x00\x08@\x00\x00\x00\x00\x00\x00:@\x00\x00\x00\x00\x00\x00>@\x00\x00\x00\x00\x00\x00 @\x00\x00\x00\x00\x00\x003@\x00\x00\x00\x00\x00\x00=@\x00\x00\x00\x00\x00\x00\x00@\x00\x00\x00\x00\x00\x80B@\x00\x00\x00\x00\x00\x00$@\x00\x00\x00\x00\x00\x00(@\x00\x00\x00\x00\x00\x80B@\x00\x00\x00\x00\x00\x00\x10@\x00\x00\x00\x00\x00\x00\x14@\x00\x00\x00\x00\x00\x00,@\x00\x00\x00\x00\x00\x00.@\x00\x00\x00\x00\x00\x00\x14@\x00\x00\x00\x00\x00\x00$@\x00\x00\x00\x00\x00\x005@\x00\x00\x00\x00\x00\x00\x18@\x00\x00\x00\x00\x00\x00$@\x00\x00\x00\x00\x00\x007@\x00\x00\x00\x00\x00\x00\x18@\x00\x00\x00\x00\x00\x007@\x00\x00\x00\x00\x00\x00\x08@\x00\x00\x00\x00\x00\x00\x18@\x00\x00\x00\x00\x00\x006@\x00\x00\x00\x00\x00\x006@\x00\x00\x00\x00\x00\x00"@\x00\x00\x00\x00\x00\x001@\x00\x00\x00\x00\x00\x007@\x00\x00\x00\x00\x00\x00\x10@\x00\x00\x00\x00\x00\x00(@\x00\x00\x00\x00\x00\x00\x18@\x00\x00\x00\x00\x00\x00<@\x00\x00\x00\x00\x00\x00<@\x00\x00\x00\x00\x00\x00\x10@\x00\x00\x00\x00\x00\x00\x00@\x00\x00\x00\x00\x00\x00Q@\x00\x00\x00\x00\x00\xc0R@\x00\x00\x00\x00\x00\x00;@\x00\x00\x00\x00\x00\x00I@\x00\x00\x00\x00\x00@U@\x00\x00\x00\x00\x00\x00*@\x00\x00\x00\x00\x00\x80B@\x00\x00\x00\x00\x00\x007@\x00\x00\x00\x00\x00\x00<@\x00\x00\x00\x00\x00@]@\x00\x00\x00\x00\x00\x00(@\x00\x00\x00\x00\x00\x00$@\x00\x00\x00\x00\x00\x00"@\x00\x00\x00\x00\x00\x00 @\x00\x00\x00\x00\x00\x00\x10@\x00\x00\x00\x00\x00\x00\x10@\x00\x00\x00\x00\x00\x00 @\x00\x00\x00\x00\x00\x00\x00@\x00\x00\x00\x00\x00\x00\x10@\x00\x00\x00\x00\x00\x00\x08@\x00\x00\x00\x00\x00\x00\x10@\x00\x00\x00\x00\x00\x00(@\x00\x00\x00\x00\x00\x00(@\x00\x00\x00\x00\x00\x00\x08@\x00\x00\x00\x00\x00\x00\x10@\x00\x00\x00\x00\x00\x00"@\x00\x00\x00\x00\x00\x00\x00@\x00\x00\x00\x00\x00\x00\x18@\x00\x00\x00\x00\x00\x00"@\x00\x00\x00\x00\x00\x00\x08@\x00\x00\x00\x00\x00\x00\x14@\x00\x00\x00\x00\x00\x00\x18@\x00\x00\x00\x00\x00\x00\x00@\x00\x00\x00\x00\x00\x00$@\x00\x00\x00\x00\x00\x00\x08@\x00\x00\x00\x00\x00\x00$@'
p15
tp16
bsS'indexed_users'
p17
c__builtin__
frozenset
p18
((lp19
Vmatt_bison
p20
aVCTU
p21
aVTwiggieStardust
p22
aVandon21
p23
aVJakopf
p24
aVron8924
p25
aVloLZokaY
p26
aVMrjetsondc
p27
aVPurplEDEW
p28
aVCarter52
p29
aVHallelujah_Popcorn2
p30
aVmcmSEA
p31
aVNickelFish
p32
aVrecurecur
p33
aVMadvillains
p34
aVdashikiman
p35
aVSmoothLemur
p36
aVSnakespeed
p37
aVKillamajig
p38
aVPattyMayonaise
p39
aVLeBroskiey
p40
aVmosqua
p41
aVllamamooseman
p42
aVcassancellor
p43
aVcrayzjoka
p44
aVcourtFTW
p45
aVFreysKillRobStark
p46
aVCool-Zip
p47
aVoptimus_fuck
p48
aVcrazynightzz
p49
aVLiamDunn
p50
aVAeroNotix
p51
aVizzylandia
p52
aVthrows_goats
p53
aVpineapplebr00sk
p54
aVrefjep1
p55
aVvelcona
p56
aVTheLastCzar
p57
aVZetaRedditor
p58
aVDazliare
p59
aVGrossPig
p60
aVhyphymang
p61
aVfapsauss
p62
aVThatBassIsFishy
p63
aVM0rbs
p64
aVdWarriors88
p65
aVm20xr
p66
aVpencer
p67
aVJovaage
p68
aV145gtw
p69
aVWatson36K
p70
aVseedarf
p71
aVSchlorbian
p72
aVbillie_holiday
p73
aVRedplushie
p74
aVIGrowAcorns
p75
aVxilog
p76
aVplayerIII
p77
aVdorfcally
p78
aVIRepeatThingsIHear
p79
aVdoneandone
p80
aVyayova
p81
aVBuscat
p82
aVBrerChicken
p83
aVconcreteliberty
p84
aVcap10wow
p85
aVcorybomb
p86
aVACFresh
p87
aVDogShitTaco
p88
aVSpuntspunt
p89
aVtrampus1
p90
aVNotThatWhite
p91
aVTrixiDelite
p92
aVGuilleX
p93
aVspiritofazuresky
p94
aVCartoonzinho
p95
aVnoahthegreat
p96
aVzombieguy224
p97
aVjoesfunhouse
p98
aVcharleattack
p99
aVLiteweightPhenomenal
p100
aVdudeman1996
p101
aVblackjewishlesbian
p102
aVDougudie
p103
aVmaximusprime7
p104
aVspedmonkeeman
p105
aVteraflux
p106
aVprobably-maybe
p107
aVhomerrsexual
p108
aVMitchellHenderson
p109
aVelclark94
p110
aVwhiskeytango55
p111
aVIvanPistoff
p112
aVallyourlives
p113
aVYeti2
p114
aVbarbie_museum
p115
aVsyuk
p116
aVcml475
p117
aVzombieregime
p118
aVMutantCreature
p119
aVjaxspider
p120
aVTerron1965
p121
aVchesus_christ
p122
aVT_O_G_G_Z
p123
aVcolorblindnick
p124
aVBukkRogerrs
p125
aVblack4ugust
p126
aVStevo182
p127
aVpetreeee
p128
aVohmyshit
p129
aVCsoltis
p130
aVMonaLot
p131
aVLunch3Box
p132
aVChukklzz
p133
aVfeelingfroggy123
p134
aVjustastupidkid
p135
aVYourBoyBings
p136
atp137
Rp138
sS'subs'
p139
(dp140
V/r/WTF/
p141
I9
sV/r/AskReddit/
p142
I4
sV/r/worldnews/
p143
I5
sV/r/pics/
p144
I0
sV/r/technology/
p145
I10
sV/r/politics/
p146
I2
sV/r/todayilearned/
p147
I8
sV/r/videos/
p148
I6
sV/r/science/
p149
I11
sV/r/IAmA/
p150
I7
sV/r/gaming/
p151
I3
sV/r/funny/
p152
I1
ssS'users'
p153
g18
((lp154
g23
ag24
ag26
ag28
ag32
ag33
ag34
ag35
ag36
ag38
ag41
ag61
ag43
ag45
ag47
aVcaffeinefree
p155
ag48
ag49
ag50
ag51
ag52
ag53
ag54
ag55
ag56
ag57
ag58
ag64
ag59
ag60
ag62
ag63
aVSpybrator
p156
ag65
ag66
ag67
ag68
ag69
ag70
ag72
ag73
ag74
ag75
ag77
ag78
ag79
ag80
ag81
ag82
aVsmudgerr
p157
ag84
ag85
ag86
ag87
ag88
ag89
ag90
ag92
ag93
ag94
aVzeelaw
p158
ag96
ag97
ag98
ag99
ag101
ag102
ag103
ag104
ag105
ag107
ag108
ag109
ag110
ag111
ag112
ag115
ag114
ag116
ag117
ag120
ag121
ag123
ag124
ag71
ag125
ag126
aVRainfly_X
p159
ag127
ag128
ag129
ag130
ag131
ag132
ag134
ag135
ag136
aVMrFeez
p160
ag21
ag22
ag25
ag27
aVDavid1337
p161
ag29
ag30
aVbostonfan5417
p162
aVmusephotos
p163
ag91
aVjelloleg
p164
ag37
ag39
ag40
aVsarahlucky13
p165
ag44
ag46
aVnowaffles4u
p166
aVTheHoInMO
p167
aVwithholdthelaughing
p168
aVChozoLore
p169
aVcrazyjah2003
p170
aVwillowisps
p171
aVTheMostPositive
p172
aVWalkensboots
p173
aVMrHaddad1213
p174
aVFlintYeastwood
p175
aVShannynh
p176
aVTheActualAWdeV
p177
aVcountry22
p178
aVpseudolobster
p179
aVIronlily
p180
aVsomewhatopinionated
p181
aVsoka23
p182
aVSeananigans
p183
aVTheFondler
p184
aVfuzzlez12
p185
aVWhoaaa3
p186
aVWastedMyTime
p187
aVGINGXXX
p188
aVmav2457
p189
aVChristinadruck
p190
aVSenorLopez
p191
aVkccogirl
p192
aVArrow156
p193
aVsupermorganx
p194
aVloyalone
p195
aVevilkenevil
p196
aVkatieeemeow
p197
aVThe_Ryan_
p198
aVthoa_k
p199
aVJoranthalus
p200
aVyoitsreid
p201
aVshaggy4847
p202
aVpics-or-didnt-happen
p203
aVVelocity_Raptor33
p204
aVGrootTheLivingTree
p205
aVzoibywannabuyonmargi
p206
aVdeejayskipper
p207
aVBearaffe
p208
aVhayate07
p209
aVpisdrunxrich
p210
aVThe_last_avenger
p211
aVUnderneathTheBridge
p212
aVBeoskar
p213
aVyougonnayou
p214
aVmekranil
p215
aVBlueElephants
p216
aVseste
p217
aVKind_Of_A_Dick
p218
aVcancub
p219
aVmiagi100
p220
aVresidentialapartment
p221
aVsquishyhomie
p222
aVshellbells83
p223
aVGRat9717
p224
aVidontknowanythg
p225
aVMayaMMM
p226
aViFancyMeSomeGoatse
p227
aVbs_martin
p228
aVbubbachuck
p229
aVverbal_diarrhea_guy
p230
aVgenzahg
p231
aVwhatsupdoc25
p232
aValionheartedgirl
p233
aVadrenalinnrush
p234
aVPainter22
p235
aVm9820841415
p236
aVsocsa
p237
aVPotchi79
p238
aVbrittlikeslettuce
p239
aVStiffard
p240
aVshanonlee
p241
aVbirdXcore
p242
aVTheAmazingLeech
p243
aVsparrowderp
p244
aVfaceless_page
p245
aVarchitrex
p246
aVStoet
p247
aVMetalliKia
p248
aVmassaikosis
p249
aVhitormiss0216
p250
aVWatermelonBread
p251
aVTwistTurtle
p252
aVmatap666
p253
aVi_am_the_fish
p254
aVyourpenisinmyhand
p255
aVguyyyy
p256
aVDyrekt
p257
aVLaxManKetchum
p258
aVBhonka
p259
aVBlessed_K
p260
aVTrollsForTheWin
p261
aVh2ofusion
p262
aVsleeplessorion
p263
aVKarjapuskuri
p264
aVLocutus-of-Borg
p265
aVV3niVidiV3ni
p266
aVusername0899
p267
aVhardturdbutthurt
p268
aVHertje73
p269
aVxhupsahoy
p270
aV4TeLuLz
p271
aVyaten_ko
p272
aVManwelle
p273
aVA5H13Y
p274
aVfrogsrbetter
p275
aVSSSecret_Squirrel
p276
aVDirkinator
p277
aVh3rp3r
p278
aVmusicalatte
p279
aVNotGreg
p280
aVAAKurtz
p281
aVl1ttl3m0nst3r
p282
aVpaxtonland
p283
aVviolet_nevermore
p284
aVPerestroikaDannyGal
p285
aVthe4thbandit
p286
aVanalog_isotope
p287
aVmmtrjh01
p288
aVguitarelf
p289
aVslimjimsharif
p290
aVCoalesced
p291
aVTechieGee
p292
aVkamiikoneko
p293
aVhambawlz
p294
aVAmdinga
p295
aVsomefuzzypants
p296
aVSUBJECT900
p297
aVCappelitoo
p298
aVAuzzers
p299
aVNominallySafeForWork
p300
aVTheGoodDrFunkyFresh
p301
aVleftystrat
p302
aVgruder
p303
aVbowsersdick
p304
aVwickedwade666
p305
aVbrownpillow
p306
aV_Saul_Good_man_
p307
aVrawsausages
p308
aVChickenPotPi
p309
aVTZUNAM1
p310
aVdrirayn
p311
aVskittles762
p312
aVWendyLRogers3
p313
aVATLAlove
p314
aVwholelottapotatoes
p315
aVHeffilumpsAndWoozels
p316
aVjohn_smith1882
p317
aVflood987
p318
ag106
aVBrodyApproves
p319
aVobscure123456789
p320
aVpete2532
p321
aVmorachan
p322
aVEpicus2011
p323
aVMaryOutside
p324
aVBroWhenYouNeedIt
p325
aVFnG_Howard_Marks
p326
aVchingyduster
p327
aVdaejeeduma
p328
aVJon_Lusco
p329
aVdanger_don
p330
aVterpsnfins333
p331
aVpff2840
p332
aViTimmeh
p333
aVNakishwana
p334
aVclassicduster
p335
aVHotwings26
p336
aVsrbrenica
p337
aVHuntthedunk
p338
aVThe_Magnificent
p339
aVpingas
p340
aVmonstercablessuck
p341
aVTroll_Visage
p342
aVkingmedo
p343
aVBravo0884
p344
aVDcoutofstep
p345
aValdothegeek
p346
aVYGZOIM
p347
aVfrenzyprime
p348
aVmoowaffle
p349
aVC_Banks
p350
aVNo1GivesAFuck
p351
aVPyro_Turtle
p352
aVprofchaos83
p353
aVlady_diem
p354
aVrsong965
p355
aVwhyufail1
p356
aVdiffference
p357
aVInfiltr4tor
p358
aVrieldilpikl
p359
aVstussy-one
p360
aVshavethatpoodle
p361
aVhardrock703
p362
aVTheIssib
p363
aVDevian50
p364
aVsirkingsleyz
p365
aVbelessd
p366
aVBolshevismFTW
p367
aVFlaccidCumshot
p368
aVMontezuma_Forgives
p369
aVBlend41
p370
aVPetiteBliss
p371
aVMinimii_15
p372
aVPenola
p373
aVRoxxis666
p374
aVNocturnhabeo
p375
aVmwilson444419
p376
aVmeatriot
p377
aVcaseyheff7
p378
aVWerewolfgirl34
p379
aVA7XGirl1119
p380
aVbentombed666
p381
aVbinky779
p382
aVBigMirror565
p383
aVzmandella
p384
aVnuvamax8
p385
aVBenJammin-19
p386
aVmadeinttown
p387
aVTheIrish7
p388
aVAubrey76
p389
aVwho_stole_nerdsaurus
p390
aVUnderlyVerbose
p391
aVMeowNeko
p392
aVlizbethblues
p393
aVantanith
p394
aVMammothMan34
p395
aVepithelia
p396
aVErikDangerFantastic
p397
aVinajeep
p398
aVI_SNORT_COCAINE
p399
aVwatchesyousleep
p400
aVTheOriginalAvenger
p401
aVTHREEYEAR
p402
aVMLutin
p403
aVdenby10562
p404
aVDerpxxDiggler
p405
aVLadyTurtles
p406
aVdanav
p407
aVNightGolfer
p408
aVPatrickWillis
p409
aVFrandaman760
p410
aVPlaysSnDnaked
p411
aVimforserial
p412
aVgdex
p413
aVfearloathingwpb
p414
aVtonybanks
p415
aVSweet_Insanity
p416
aVtdrhq
p417
aVLebronObamaWinfrey
p418
aVZypp
p419
aVSeniorVicePresident
p420
aVmy_parakeet_petey
p421
aVmoneyproblemcure
p422
aVskinturtle
p423
aVBad_Zoo_Boy
p424
aVskrew37
p425
aV41571
p426
aVIhateToronto
p427
aVValdirty
p428
aVdot1q_for_you
p429
aVndelregno
p430
aVpblack09
p431
aVPyronicEX
p432
aVOgre1
p433
aVCaptainFunyun
p434
aVSlightlyFarcical
p435
aVpapa_bear_uk
p436
aVCuetheHippos
p437
aVBrighterThunder
p438
aVMisterTanuki
p439
aVmurphy2747
p440
aVquietcornerCT
p441
aVashnico
p442
aVPelican_Fly
p443
ag20
aVFindingIt
p444
aVArtificial_Squab
p445
aVoddmanout
p446
aVzayn_was_here
p447
aVThemDyingEars
p448
aVNothingWild
p449
aVkingkevz
p450
aVyackewy23
p451
aVSwerves-2-Hit-Cats
p452
aVskekze
p453
aVthe_corruption
p454
aVBitterNAlone
p455
aVCclaura616
p456
aVRickisgone
p457
aVDarthMakena
p458
aVshmalo
p459
aVbizznich13
p460
aVIts_Dope
p461
aVJCAPS766
p462
aVSpartan_84
p463
aVkiev22
p464
aVSillylikeagoose
p465
aVBeast_and_the_harlot
p466
aVvedfolnir
p467
aVdiscovivi
p468
aVdenim-chicken
p469
aVOGwonka
p470
aVjinek67
p471
aVsaor_in_aisce
p472
aVBTMaverick707
p473
aVittakesacrane
p474
aVTheJanks
p475
aV3VERGREEN
p476
aVdeadcat
p477
aVMeowtwe
p478
aVpanzerdriver
p479
aVkhanfusion
p480
aVDiablo718
p481
aVnanovirus2
p482
aVgreat_gape
p483
aVthasnazgul
p484
aVXXChromosome11
p485
aVchrisisaboss
p486
aVyoungli0n
p487
aVMacTheMan
p488
aVDraper-Durden-619
p489
aVcscmitts
p490
aVcarmina_roja
p491
aVsrirancha
p492
aVpsno1994
p493
aVFrozen_Esper
p494
aVgertnerbot
p495
aVBuildinblox
p496
aVduckaducka
p497
aVibelieveinbass
p498
aVpantsmeplz
p499
aVyhyunkwon
p500
aVwoxaquia
p501
aV-status-
p502
aVPhysics_Unicorn
p503
aVNeverEndinStorm
p504
aVRobotyc
p505
aVEdgHG
p506
aVPorter_of_Hellgate
p507
aVTaco-Tico
p508
aVMel0maniac
p509
aVmarshull
p510
aVChocolateMeoww
p511
aVvonsmor
p512
aVinsanitycentral
p513
aVimsecretlyadog
p514
aVjdps27
p515
aVthepaperlion
p516
aVmunch_the_gunch
p517
aVjdd32
p518
aVpurpledust
p519
aVdirtfeast
p520
aVjreid42
p521
aVearthtoandy
p522
aValexandria88
p523
aVfinklere
p524
aVTragicOne
p525
aVvelvetrasputin
p526
aVfutrtek
p527
aVmarryanowl
p528
aVCrackerCat
p529
aVSwagMongoose
p530
aVRoswell85
p531
aVpetedacook
p532
aVcojafoji
p533
aVInnova
p534
aVForgettableUsername
p535
aVSlyFrauline
p536
aVchickenbean
p537
aVApeofBass
p538
aVSilverTongie
p539
aV1pnoe
p540
aVsparklingbluelight
p541
aVPenguinJuice69
p542
aVJordan_Trethewey
p543
aVtorontoitguy
p544
aVcriszilla100
p545
aVhipnosister
p546
aVSpankyDmonkey
p547
aVswiftyin
p548
aVdoublechucklehaha
p549
aVIkiltme
p550
aVvocativelion
p551
aVwishinghand
p552
aVTheBeefyMungPie
p553
aVitsasillyplace
p554
aVLionHead25
p555
aVSin6060
p556
aVLivingSaladDays
p557
aVhabanolover
p558
aVcondescendingfox
p559
aViambobbydennis
p560
aVGooeyGungan
p561
aVLarry_The_Lobster
p562
aVsouphanousinphone
p563
aVbikinininja
p564
aVUnsung_Zero
p565
aVkevtoria
p566
aVUmkazto
p567
aVGoddammitChuck
p568
aVTheCannonOfKittens
p569
aVJordyn_327
p570
aVwongaroota
p571
aVZeGermans750
p572
aVHeyImDrew
p573
ag95
aVkhengstebeck
p574
aVOMGWTFPAPARAZZI
p575
aVpudwacker
p576
aVkokchain
p577
ag76
ag42
aVCatrickStrayze
p578
aVShelberius
p579
aVWowzaCannedSpam
p580
aVblunsandbeers
p581
aVbacondavis
p582
aVRiffyosis
p583
aVBentAxel
p584
aVTH0UGHTP0LICE
p585
aVshrednesday
p586
ag118
aVToy_Cop
p587
aVfrorge
p588
aVpichalite
p589
aVLadyMegbeth
p590
aVjahoosuphat
p591
aVjustbecausewhynot
p592
aVDawnOfTheTruth
p593
aVthisisgodhere
p594
aVAndyT_T
p595
aVgroberts
p596
aVthedriftofwords
p597
aVMoonhowler22
p598
aVkingsoftheearth
p599
aVfancy_as_fuck
p600
aVDaPlane_DaPlane
p601
aVhyphyked
p602
aVavacynangelofhope
p603
aVblumpcone
p604
aVinhumancannonball
p605
aVdmremic
p606
aVwillyolio
p607
aVAnon2332
p608
aVMushtingz
p609
aVDrizztInferno
p610
aVRemixznflow
p611
aVBason-Jateman
p612
aVRileyTrodd
p613
aVSlattCatt
p614
aVKingPhine
p615
aVnobodytrickedme
p616
aVMacFatty
p617
aVTolkien23
p618
aVemcitymisfit
p619
aVicenitribe
p620
aVjermlai
p621
aVohla_david
p622
aVtarnishstar
p623
aVpurpskurprallrus
p624
aVAKArcticMoose
p625
aVISKEELE
p626
aVCatFelix
p627
aVBarack-OJimmy
p628
aVEkori
p629
aVkarmacolor23
p630
aVtagard04
p631
aVcritercat
p632
aVCrunketh
p633
aVmriley8391
p634
aVJustinAshburn
p635
aVArtMaggot
p636
aVNightgoat666
p637
aVNewbSaysRawr
p638
aVDRFUNKE100
p639
aVpafpdd
p640
aVyorgyschmorgy64
p641
aVTheBiggestFish
p642
aVteiluj
p643
aVRocketRedRocket
p644
aVqueuedUp
p645
aVpbjinx
p646
aVWagBoss
p647
aVLittlebigbenny
p648
aVFAP_CORP
p649
aVantsugi
p650
aVGurubreed
p651
aVBiggg_D21
p652
aVHyperdrunk
p653
aVTheBreakerofWinds
p654
aVjust_wrong
p655
aVcodesign
p656
aVjiggymaster24
p657
aVSmuffler
p658
aVeverycoloreyes
p659
aVpajogu
p660
aVNage
p661
aVOverlyattachedhubby
p662
aVDookiestain_LaFlair
p663
aVtuckmyjunksofast
p664
aVgeorgeo
p665
aVrepressed
p666
aVBinAlaDouT
p667
aVWix021705
p668
aVOscaraWilde
p669
aVpru555
p670
aVHipHoppin
p671
aVkarma1337a
p672
aVgigabyte898
p673
aVGrandmasterWu
p674
aVwugby
p675
aVnexL
p676
aVZiggyBOP155
p677
aVGrant638
p678
aVNatalie-Ramert
p679
aVbsb78
p680
aVThemBastards
p681
aVRoberto_Valentino
p682
aVPurppleHaze
p683
aVdd3mon
p684
aVxachway
p685
aVEliThePerson
p686
aVtacomgee
p687
ag100
aVhellajaded
p688
aVmahgnous
p689
aVseveredfragile
p690
aVryan62187
p691
aVbadphish94
p692
aVH-Resin
p693
aVscribbling_des
p694
aVxxtdwpxx92
p695
aVcathieeeee
p696
aVbybybirdie
p697
aVoopse3
p698
aVpsychotico
p699
aVthehymen
p700
aVwhereisdafishie
p701
ag119
aVtimeteo
p702
aVhackattack92
p703
aVdabbleinlife
p704
ag122
aVHK6
p705
aVAllieWonder
p706
aVreagan2016
p707
aVAssCrust1
p708
aVdelafonz
p709
aVDuckyPlum
p710
aVflyers716
p711
aVBioGenx2b
p712
aVNotQuiteVoltaire
p713
aVPACOSTACOS26
p714
ag133
aVWinkelkater
p715
aViwishiwascreative
p716
aVD-DayDodger
p717
aVmichelletrachtenberg
p718
aVProfezzor
p719
aVrobotswag
p720
aVSir_Fancy_Pants
p721
aVSomeoneBetter
p722
aVfucktales
p723
aVHagWeed
p724
aVkitschaus
p725
aVDreamEscaped
p726
aVGageTTU
p727
ag31
aVblehm98
p728
aVkrzlmrps
p729
aVherroo123
p730
aVRobertmaniac
p731
aVPredatormn
p732
aVOptionalFrank
p733
aVyvan369
p734
aVfalloutpunk
p735
aVBlueRazors
p736
aVSauce_Demon
p737
aVLenny_Lipton
p738
aVNomchucks
p739
aVBrownGhost10
p740
aVSnapcrackleburp
p741
aVAetherAlchemyst
p742
aVRedsox2488
p743
aVImArtiztik
p744
aVSongOfTheShoeBox
p745
aVimustacheyouaQ
p746
aVHeManIsNotGay
p747
aVT_I_M_B_A_R
p748
aVEricTheTerrible
p749
aVrushesh
p750
aVDolomite808
p751
aVAndixAutopsy
p752
aVMaxfunky
p753
aVLeJimmyRustler
p754
aVAccipehoc
p755
aVtedstyle
p756
aVDIRTY_CRAPPED_BRIEFS
p757
aVtalitus
p758
aVweaselgregory13
p759
aVWhalesAreNotReal
p760
aVSirlaughalot5
p761
aVsfled
p762
aVSevenfoldAvenger
p763
aVMustin_Dobley
p764
aVwortime
p765
aVwill_lurk4beer
p766
aVdator
p767
aVjohnnyonthegspot
p768
aVNasal_Sex
p769
aVwardenblarg
p770
aVPerfected
p771
aVRacheldkane
p772
aVseethruyou
p773
aVLebowskii
p774
aVschmiegola_mcbain
p775
aVorittenberg
p776
aVchaos92287
p777
aVtunaktu86
p778
aVdarealvvaldeezy
p779
aVtrainertaryn
p780
aVKingLepus
p781
ag83
aVgrubbymitts
p782
aVSwiller2
p783
aVmoderate_dork
p784
aVdark_elixir
p785
aVgrandehead
p786
aVGunzerkin_off
p787
aViamkoloss
p788
aVRyugi
p789
aVsmeaglelovesmaster
p790
aVBabyfart_McGeezacks
p791
aVA-Lav
p792
aVmilenkosmagic
p793
aVcttouch
p794
aVchad_sechsington
p795
aVgjbrown27
p796
aVIsleepreallylate
p797
aVgruntmon
p798
aVblooper2112
p799
aVMissLifeisbeautiful
p800
aVrehu4
p801
aVmalacide
p802
aVwirette
p803
aVoPedoBear
p804
aVtricks87
p805
aVpurskatuja
p806
ag113
aVpolynomials
p807
aVracaca
p808
aVcdubbs44
p809
aVsawbones84
p810
aVdysgraphical
p811
aVforcemarine
p812
aVchubbysumo
p813
aVhotpuck6
p814
aVkigolebitties
p815
aVUSApwnKorean
p816
aVKcry
p817
aVrydogg7284
p818
aVVelocityVandetta
p819
aVsfacets
p820
aVMarcoMacaco
p821
aVXqwz
p822
aVLeeph
p823
aVclosetedskeleton
p824
aVDietShastaOrange
p825
aVsmileyfrown
p826
aVTalkingBackAgain
p827
aVSuperUltraJesus
p828
aVwemo14
p829
aVShakey_Puddin
p830
aVBumBeater
p831
atp832
Rp833
s.